target datalayout = "e-m:e-p270:32:32-p271:32:32-p272:64:64-i64:64-i128:128-f80:128-n8:16:32:64-S128"
target triple = "x86_64-pc-linux-gnu"

%"class.nanobind::python_error" = type { %"class.std::exception", ptr, ptr, ptr, ptr }
%"class.std::exception" = type { ptr }

; Function Attrs: mustprogress nounwind uwtable
define void @_ZN8nanobind12python_error7restoreEv(ptr noundef nonnull align 8 dereferenceable(40) %0) #2 align 2 personality ptr @__gxx_personality_v0 {
  %2 = alloca ptr, align 8
  store ptr %0, ptr %2, align 8
  %3 = load ptr, ptr %2, align 8
  %4 = getelementptr inbounds nuw %"class.nanobind::python_error", ptr %3, i32 0, i32 1
  %5 = load ptr, ptr %4, align 8
  %6 = icmp ne ptr %5, null
  %7 = xor i1 %6, true
  %8 = zext i1 %7 to i64
  %9 = call i64 @llvm.expect.i64(i64 %8, i64 0)
  %10 = icmp ne i64 %9, 0
  br i1 %10, label %11, label %12

11:                                               ; preds = %1
  call void @_ZN8nanobind6detail16fail_unspecifiedEv() #25
  unreachable

12:                                               ; preds = %1
  %13 = getelementptr inbounds nuw %"class.nanobind::python_error", ptr %3, i32 0, i32 1
  %14 = load ptr, ptr %13, align 8
  %15 = getelementptr inbounds nuw %"class.nanobind::python_error", ptr %3, i32 0, i32 2
  %16 = load ptr, ptr %15, align 8
  %17 = getelementptr inbounds nuw %"class.nanobind::python_error", ptr %3, i32 0, i32 3
  %18 = load ptr, ptr %17, align 8
  invoke void @PyErr_Restore(ptr noundef %14, ptr noundef %16, ptr noundef %18)
          to label %19 unwind label %23

19:                                               ; preds = %12
  %20 = getelementptr inbounds nuw %"class.nanobind::python_error", ptr %3, i32 0, i32 3
  store ptr null, ptr %20, align 8
  %21 = getelementptr inbounds nuw %"class.nanobind::python_error", ptr %3, i32 0, i32 2
  store ptr null, ptr %21, align 8
  %22 = getelementptr inbounds nuw %"class.nanobind::python_error", ptr %3, i32 0, i32 1
  store ptr null, ptr %22, align 8
  ret void

23:                                               ; preds = %12
  %24 = landingpad { ptr, i32 }
          catch ptr null
  %25 = extractvalue { ptr, i32 } %24, 0
  call void @__clang_call_terminate(ptr %25) #25
  unreachable
}